; Function Attrs: nounwind uwtable
define ptr @l_Lean_Elab_Command_elabMutual___lambda__1(ptr noundef %0, ptr noundef %1, ptr noundef %2, ptr noundef %3) local_unnamed_addr #0 {
  %5 = tail call ptr @l_Lean_Elab_Command_isMutualInductive___at_Lean_Elab_Command_elabMutual___spec__1(ptr noundef %0, ptr poison, ptr noundef %2, ptr noundef %3)
  %6 = getelementptr inbounds nuw i8, ptr %5, i64 8
  %7 = load ptr, ptr %6, align 8, !tbaa !9
  %8 = ptrtoint ptr %7 to i64
  %9 = and i64 %8, 1
  %.not = icmp eq i64 %9, 0
  br i1 %.not, label %10, label %lean_dec.exit35

10:                                               ; preds = %4
  %.val.i = load i32, ptr %7, align 4, !tbaa !4
  %11 = icmp sgt i32 %.val.i, 0
  br i1 %11, label %12, label %14, !prof !11

12:                                               ; preds = %10
  %13 = add nuw i32 %.val.i, 1
  store i32 %13, ptr %7, align 4, !tbaa !4
  br label %16

14:                                               ; preds = %10
  %.not.i44 = icmp eq i32 %.val.i, 0
  br i1 %.not.i44, label %lean_dec.exit35, label %15

15:                                               ; preds = %14
  tail call void @lean_inc_ref_cold(ptr noundef nonnull %7) #6
  %.pr = load i32, ptr %7, align 4, !tbaa !4
  br label %16

16:                                               ; preds = %15, %12
  %17 = phi i32 [ %.pr, %15 ], [ %13, %12 ]
  %18 = icmp sgt i32 %17, 1
  br i1 %18, label %19, label %21, !prof !17

19:                                               ; preds = %16
  %20 = add nsw i32 %17, -1
  store i32 %20, ptr %7, align 4, !tbaa !4
  br label %lean_dec.exit35

21:                                               ; preds = %16
  %.not.i = icmp eq i32 %17, 0
  br i1 %.not.i, label %lean_dec.exit35, label %22

22:                                               ; preds = %21
  tail call void @lean_dec_ref_cold(ptr noundef nonnull %7) #6
  br label %lean_dec.exit35

lean_dec.exit35:                                  ; preds = %4, %14, %22, %21, %19
  %23 = and i64 %8, 510
  %24 = icmp eq i64 %23, 0
  %25 = getelementptr inbounds nuw i8, ptr %5, i64 16
  %26 = load ptr, ptr %25, align 8, !tbaa !9
  %27 = ptrtoint ptr %26 to i64
  %28 = and i64 %27, 1
  %.not56 = icmp eq i64 %28, 0
  br i1 %24, label %29, label %56

29:                                               ; preds = %lean_dec.exit35
  br i1 %.not56, label %30, label %lean_inc.exit30

30:                                               ; preds = %29
  %.val.i45 = load i32, ptr %26, align 4, !tbaa !4
  %31 = icmp sgt i32 %.val.i45, 0
  br i1 %31, label %32, label %34, !prof !11

32:                                               ; preds = %30
  %33 = add nuw i32 %.val.i45, 1
  store i32 %33, ptr %26, align 4, !tbaa !4
  br label %lean_inc.exit30

34:                                               ; preds = %30
  %.not.i46 = icmp eq i32 %.val.i45, 0
  br i1 %.not.i46, label %lean_inc.exit30, label %35

35:                                               ; preds = %34
  tail call void @lean_inc_ref_cold(ptr noundef nonnull %26) #6
  br label %lean_inc.exit30

lean_inc.exit30:                                  ; preds = %35, %34, %32, %29
  %36 = ptrtoint ptr %5 to i64
  %37 = and i64 %36, 1
  %.not57 = icmp eq i64 %37, 0
  br i1 %.not57, label %38, label %lean_dec.exit34

38:                                               ; preds = %lean_inc.exit30
  %39 = load i32, ptr %5, align 4, !tbaa !4
  %40 = icmp sgt i32 %39, 1
  br i1 %40, label %41, label %43, !prof !11

41:                                               ; preds = %38
  %42 = add nsw i32 %39, -1
  store i32 %42, ptr %5, align 4, !tbaa !4
  br label %lean_dec.exit34

43:                                               ; preds = %38
  %.not.i36 = icmp eq i32 %39, 0
  br i1 %.not.i36, label %lean_dec.exit34, label %44

44:                                               ; preds = %43
  tail call void @lean_dec_ref_cold(ptr noundef nonnull %5) #6
  br label %lean_dec.exit34

lean_dec.exit34:                                  ; preds = %44, %43, %41, %lean_inc.exit30
  %45 = load ptr, ptr @l_Lean_Elab_Command_elabMutual___lambda__1___closed__2, align 8, !tbaa !9
  %46 = tail call ptr @l_Lean_throwError___at___private_Lean_Elab_Command_0__Lean_Elab_Command_elabCommandUsing___spec__1(ptr noundef %45, ptr noundef %1, ptr noundef %2, ptr noundef %26) #6
  %47 = ptrtoint ptr %2 to i64
  %48 = and i64 %47, 1
  %.not58 = icmp eq i64 %48, 0
  br i1 %.not58, label %49, label %lean_dec.exit33

49:                                               ; preds = %lean_dec.exit34
  %50 = load i32, ptr %2, align 4, !tbaa !4
  %51 = icmp sgt i32 %50, 1
  br i1 %51, label %52, label %54, !prof !11

52:                                               ; preds = %49
  %53 = add nsw i32 %50, -1
  store i32 %53, ptr %2, align 4, !tbaa !4
  br label %lean_dec.exit33

54:                                               ; preds = %49
  %.not.i38 = icmp eq i32 %50, 0
  br i1 %.not.i38, label %lean_dec.exit33, label %55

55:                                               ; preds = %54
  tail call void @lean_dec_ref_cold(ptr noundef nonnull %2) #6
  br label %lean_dec.exit33

56:                                               ; preds = %lean_dec.exit35
  br i1 %.not56, label %57, label %lean_inc.exit

57:                                               ; preds = %56
  %.val.i48 = load i32, ptr %26, align 4, !tbaa !4
  %58 = icmp sgt i32 %.val.i48, 0
  br i1 %58, label %59, label %61, !prof !11

59:                                               ; preds = %57
  %60 = add nuw i32 %.val.i48, 1
  store i32 %60, ptr %26, align 4, !tbaa !4
  br label %lean_inc.exit

61:                                               ; preds = %57
  %.not.i49 = icmp eq i32 %.val.i48, 0
  br i1 %.not.i49, label %lean_inc.exit, label %62

62:                                               ; preds = %61
  tail call void @lean_inc_ref_cold(ptr noundef nonnull %26) #6
  br label %lean_inc.exit

lean_inc.exit:                                    ; preds = %62, %61, %59, %56
  %63 = ptrtoint ptr %5 to i64
  %64 = and i64 %63, 1
  %.not54 = icmp eq i64 %64, 0
  br i1 %.not54, label %65, label %lean_dec.exit32

65:                                               ; preds = %lean_inc.exit
  %66 = load i32, ptr %5, align 4, !tbaa !4
  %67 = icmp sgt i32 %66, 1
  br i1 %67, label %68, label %70, !prof !11

68:                                               ; preds = %65
  %69 = add nsw i32 %66, -1
  store i32 %69, ptr %5, align 4, !tbaa !4
  br label %lean_dec.exit32

70:                                               ; preds = %65
  %.not.i40 = icmp eq i32 %66, 0
  br i1 %.not.i40, label %lean_dec.exit32, label %71

71:                                               ; preds = %70
  tail call void @lean_dec_ref_cold(ptr noundef nonnull %5) #6
  br label %lean_dec.exit32

lean_dec.exit32:                                  ; preds = %71, %70, %68, %lean_inc.exit
  %72 = tail call ptr @l_Lean_Syntax_getArg(ptr noundef %0, ptr noundef nonnull inttoptr (i64 3 to ptr)) #6
  %73 = tail call ptr @l_Lean_Syntax_getArgs(ptr noundef %72) #6
  %74 = ptrtoint ptr %72 to i64
  %75 = and i64 %74, 1
  %.not55 = icmp eq i64 %75, 0
  br i1 %.not55, label %76, label %lean_dec.exit

76:                                               ; preds = %lean_dec.exit32
  %77 = load i32, ptr %72, align 4, !tbaa !4
  %78 = icmp sgt i32 %77, 1
  br i1 %78, label %79, label %81, !prof !11

79:                                               ; preds = %76
  %80 = add nsw i32 %77, -1
  store i32 %80, ptr %72, align 4, !tbaa !4
  br label %lean_dec.exit

81:                                               ; preds = %76
  %.not.i42 = icmp eq i32 %77, 0
  br i1 %.not.i42, label %lean_dec.exit, label %82

82:                                               ; preds = %81
  tail call void @lean_dec_ref_cold(ptr noundef nonnull %72) #6
  br label %lean_dec.exit

lean_dec.exit:                                    ; preds = %82, %81, %79, %lean_dec.exit32
  %83 = tail call ptr @l_Lean_Elab_Command_elabMutualInductive(ptr noundef %73, ptr noundef %1, ptr noundef %2, ptr noundef %26) #6
  br label %lean_dec.exit33

lean_dec.exit33:                                  ; preds = %lean_dec.exit34, %52, %54, %55, %lean_dec.exit
  %.0 = phi ptr [ %83, %lean_dec.exit ], [ %46, %55 ], [ %46, %54 ], [ %46, %52 ], [ %46, %lean_dec.exit34 ]
  ret ptr %.0
}